Archive member included to satisfy reference by file (symbol)

c:/st/stm32cubeide_1.12.0/stm32cubeide/plugins/com.st.stm32cube.ide.mcu.externaltools.gnu-tools-for-stm32.10.3-2021.10.win32_1.0.200.202301161003/tools/bin/../lib/gcc/arm-none-eabi/10.3.1/../../../../arm-none-eabi/lib/thumb/v7e-m/nofp\libc_nano.a(lib_a-errno.o)
                              ./Src/syscalls.o (__errno)
c:/st/stm32cubeide_1.12.0/stm32cubeide/plugins/com.st.stm32cube.ide.mcu.externaltools.gnu-tools-for-stm32.10.3-2021.10.win32_1.0.200.202301161003/tools/bin/../lib/gcc/arm-none-eabi/10.3.1/../../../../arm-none-eabi/lib/thumb/v7e-m/nofp\libc_nano.a(lib_a-exit.o)
                              c:/st/stm32cubeide_1.12.0/stm32cubeide/plugins/com.st.stm32cube.ide.mcu.externaltools.gnu-tools-for-stm32.10.3-2021.10.win32_1.0.200.202301161003/tools/bin/../lib/gcc/arm-none-eabi/10.3.1/../../../../arm-none-eabi/lib/thumb/v7e-m/nofp/crt0.o (exit)
c:/st/stm32cubeide_1.12.0/stm32cubeide/plugins/com.st.stm32cube.ide.mcu.externaltools.gnu-tools-for-stm32.10.3-2021.10.win32_1.0.200.202301161003/tools/bin/../lib/gcc/arm-none-eabi/10.3.1/../../../../arm-none-eabi/lib/thumb/v7e-m/nofp\libc_nano.a(lib_a-impure.o)
                              c:/st/stm32cubeide_1.12.0/stm32cubeide/plugins/com.st.stm32cube.ide.mcu.externaltools.gnu-tools-for-stm32.10.3-2021.10.win32_1.0.200.202301161003/tools/bin/../lib/gcc/arm-none-eabi/10.3.1/../../../../arm-none-eabi/lib/thumb/v7e-m/nofp\libc_nano.a(lib_a-exit.o) (_global_impure_ptr)
c:/st/stm32cubeide_1.12.0/stm32cubeide/plugins/com.st.stm32cube.ide.mcu.externaltools.gnu-tools-for-stm32.10.3-2021.10.win32_1.0.200.202301161003/tools/bin/../lib/gcc/arm-none-eabi/10.3.1/../../../../arm-none-eabi/lib/thumb/v7e-m/nofp\libc_nano.a(lib_a-init.o)
                              c:/st/stm32cubeide_1.12.0/stm32cubeide/plugins/com.st.stm32cube.ide.mcu.externaltools.gnu-tools-for-stm32.10.3-2021.10.win32_1.0.200.202301161003/tools/bin/../lib/gcc/arm-none-eabi/10.3.1/../../../../arm-none-eabi/lib/thumb/v7e-m/nofp/crt0.o (__libc_init_array)
c:/st/stm32cubeide_1.12.0/stm32cubeide/plugins/com.st.stm32cube.ide.mcu.externaltools.gnu-tools-for-stm32.10.3-2021.10.win32_1.0.200.202301161003/tools/bin/../lib/gcc/arm-none-eabi/10.3.1/../../../../arm-none-eabi/lib/thumb/v7e-m/nofp\libc_nano.a(lib_a-memset.o)
                              c:/st/stm32cubeide_1.12.0/stm32cubeide/plugins/com.st.stm32cube.ide.mcu.externaltools.gnu-tools-for-stm32.10.3-2021.10.win32_1.0.200.202301161003/tools/bin/../lib/gcc/arm-none-eabi/10.3.1/../../../../arm-none-eabi/lib/thumb/v7e-m/nofp/crt0.o (memset)

Discarded input sections

 .text          0x0000000000000000        0x0 c:/st/stm32cubeide_1.12.0/stm32cubeide/plugins/com.st.stm32cube.ide.mcu.externaltools.gnu-tools-for-stm32.10.3-2021.10.win32_1.0.200.202301161003/tools/bin/../lib/gcc/arm-none-eabi/10.3.1/thumb/v7e-m/nofp/crti.o
 .data          0x0000000000000000        0x0 c:/st/stm32cubeide_1.12.0/stm32cubeide/plugins/com.st.stm32cube.ide.mcu.externaltools.gnu-tools-for-stm32.10.3-2021.10.win32_1.0.200.202301161003/tools/bin/../lib/gcc/arm-none-eabi/10.3.1/thumb/v7e-m/nofp/crti.o
 .bss           0x0000000000000000        0x0 c:/st/stm32cubeide_1.12.0/stm32cubeide/plugins/com.st.stm32cube.ide.mcu.externaltools.gnu-tools-for-stm32.10.3-2021.10.win32_1.0.200.202301161003/tools/bin/../lib/gcc/arm-none-eabi/10.3.1/thumb/v7e-m/nofp/crti.o
 .data          0x0000000000000000        0x4 c:/st/stm32cubeide_1.12.0/stm32cubeide/plugins/com.st.stm32cube.ide.mcu.externaltools.gnu-tools-for-stm32.10.3-2021.10.win32_1.0.200.202301161003/tools/bin/../lib/gcc/arm-none-eabi/10.3.1/thumb/v7e-m/nofp/crtbegin.o
 .rodata        0x0000000000000000       0x24 c:/st/stm32cubeide_1.12.0/stm32cubeide/plugins/com.st.stm32cube.ide.mcu.externaltools.gnu-tools-for-stm32.10.3-2021.10.win32_1.0.200.202301161003/tools/bin/../lib/gcc/arm-none-eabi/10.3.1/thumb/v7e-m/nofp/crtbegin.o
 .text          0x0000000000000000       0x7c c:/st/stm32cubeide_1.12.0/stm32cubeide/plugins/com.st.stm32cube.ide.mcu.externaltools.gnu-tools-for-stm32.10.3-2021.10.win32_1.0.200.202301161003/tools/bin/../lib/gcc/arm-none-eabi/10.3.1/../../../../arm-none-eabi/lib/thumb/v7e-m/nofp/crt0.o
 .data          0x0000000000000000        0x0 c:/st/stm32cubeide_1.12.0/stm32cubeide/plugins/com.st.stm32cube.ide.mcu.externaltools.gnu-tools-for-stm32.10.3-2021.10.win32_1.0.200.202301161003/tools/bin/../lib/gcc/arm-none-eabi/10.3.1/../../../../arm-none-eabi/lib/thumb/v7e-m/nofp/crt0.o
 .bss           0x0000000000000000        0x0 c:/st/stm32cubeide_1.12.0/stm32cubeide/plugins/com.st.stm32cube.ide.mcu.externaltools.gnu-tools-for-stm32.10.3-2021.10.win32_1.0.200.202301161003/tools/bin/../lib/gcc/arm-none-eabi/10.3.1/../../../../arm-none-eabi/lib/thumb/v7e-m/nofp/crt0.o
 .ARM.extab     0x0000000000000000        0x0 c:/st/stm32cubeide_1.12.0/stm32cubeide/plugins/com.st.stm32cube.ide.mcu.externaltools.gnu-tools-for-stm32.10.3-2021.10.win32_1.0.200.202301161003/tools/bin/../lib/gcc/arm-none-eabi/10.3.1/../../../../arm-none-eabi/lib/thumb/v7e-m/nofp/crt0.o
 .ARM.exidx     0x0000000000000000       0x10 c:/st/stm32cubeide_1.12.0/stm32cubeide/plugins/com.st.stm32cube.ide.mcu.externaltools.gnu-tools-for-stm32.10.3-2021.10.win32_1.0.200.202301161003/tools/bin/../lib/gcc/arm-none-eabi/10.3.1/../../../../arm-none-eabi/lib/thumb/v7e-m/nofp/crt0.o
 .ARM.attributes
                0x0000000000000000       0x1c c:/st/stm32cubeide_1.12.0/stm32cubeide/plugins/com.st.stm32cube.ide.mcu.externaltools.gnu-tools-for-stm32.10.3-2021.10.win32_1.0.200.202301161003/tools/bin/../lib/gcc/arm-none-eabi/10.3.1/../../../../arm-none-eabi/lib/thumb/v7e-m/nofp/crt0.o
 .group         0x0000000000000000        0xc ./HAL/Keypad/keypad.o
 .group         0x0000000000000000        0xc ./HAL/Keypad/keypad.o
 .group         0x0000000000000000        0xc ./HAL/Keypad/keypad.o
 .group         0x0000000000000000        0xc ./HAL/Keypad/keypad.o
 .group         0x0000000000000000        0xc ./HAL/Keypad/keypad.o
 .group         0x0000000000000000        0xc ./HAL/Keypad/keypad.o
 .group         0x0000000000000000        0xc ./HAL/Keypad/keypad.o
 .group         0x0000000000000000        0xc ./HAL/Keypad/keypad.o
 .group         0x0000000000000000        0xc ./HAL/Keypad/keypad.o
 .group         0x0000000000000000        0xc ./HAL/Keypad/keypad.o
 .group         0x0000000000000000        0xc ./HAL/Keypad/keypad.o
 .group         0x0000000000000000        0xc ./HAL/Keypad/keypad.o
 .text          0x0000000000000000        0x0 ./HAL/Keypad/keypad.o
 .data          0x0000000000000000        0x0 ./HAL/Keypad/keypad.o
 .bss           0x0000000000000000        0x0 ./HAL/Keypad/keypad.o
 .text.Keypad_Init
                0x0000000000000000       0x8c ./HAL/Keypad/keypad.o
 .rodata        0x0000000000000000       0x10 ./HAL/Keypad/keypad.o
 .text.Keypad_GetPressed
                0x0000000000000000       0xb4 ./HAL/Keypad/keypad.o
 .debug_info    0x0000000000000000      0x30e ./HAL/Keypad/keypad.o
 .debug_abbrev  0x0000000000000000      0x125 ./HAL/Keypad/keypad.o
 .debug_aranges
                0x0000000000000000       0x28 ./HAL/Keypad/keypad.o
 .debug_ranges  0x0000000000000000       0x18 ./HAL/Keypad/keypad.o
 .debug_macro   0x0000000000000000       0xb4 ./HAL/Keypad/keypad.o
 .debug_macro   0x0000000000000000      0xa78 ./HAL/Keypad/keypad.o
 .debug_macro   0x0000000000000000       0x22 ./HAL/Keypad/keypad.o
 .debug_macro   0x0000000000000000       0x8e ./HAL/Keypad/keypad.o
 .debug_macro   0x0000000000000000       0x51 ./HAL/Keypad/keypad.o
 .debug_macro   0x0000000000000000      0x103 ./HAL/Keypad/keypad.o
 .debug_macro   0x0000000000000000       0x6a ./HAL/Keypad/keypad.o
 .debug_macro   0x0000000000000000      0x1df ./HAL/Keypad/keypad.o
 .debug_macro   0x0000000000000000      0x16c ./HAL/Keypad/keypad.o
 .debug_macro   0x0000000000000000      0x1ae ./HAL/Keypad/keypad.o
 .debug_macro   0x0000000000000000       0xb8 ./HAL/Keypad/keypad.o
 .debug_macro   0x0000000000000000       0x1c ./HAL/Keypad/keypad.o
 .debug_macro   0x0000000000000000       0x40 ./HAL/Keypad/keypad.o
 .debug_line    0x0000000000000000      0x5f0 ./HAL/Keypad/keypad.o
 .debug_str     0x0000000000000000     0x4b76 ./HAL/Keypad/keypad.o
 .comment       0x0000000000000000       0x51 ./HAL/Keypad/keypad.o
 .debug_frame   0x0000000000000000       0x5c ./HAL/Keypad/keypad.o
 .ARM.attributes
                0x0000000000000000       0x2e ./HAL/Keypad/keypad.o
 .group         0x0000000000000000        0xc ./HAL/LCD/LCD.o
 .group         0x0000000000000000        0xc ./HAL/LCD/LCD.o
 .group         0x0000000000000000        0xc ./HAL/LCD/LCD.o
 .group         0x0000000000000000        0xc ./HAL/LCD/LCD.o
 .group         0x0000000000000000        0xc ./HAL/LCD/LCD.o
 .group         0x0000000000000000        0xc ./HAL/LCD/LCD.o
 .group         0x0000000000000000        0xc ./HAL/LCD/LCD.o
 .group         0x0000000000000000        0xc ./HAL/LCD/LCD.o
 .group         0x0000000000000000        0xc ./HAL/LCD/LCD.o
 .group         0x0000000000000000        0xc ./HAL/LCD/LCD.o
 .group         0x0000000000000000        0xc ./HAL/LCD/LCD.o
 .group         0x0000000000000000        0xc ./HAL/LCD/LCD.o
 .text          0x0000000000000000        0x0 ./HAL/LCD/LCD.o
 .data          0x0000000000000000        0x0 ./HAL/LCD/LCD.o
 .bss           0x0000000000000000        0x0 ./HAL/LCD/LCD.o
 .text.LCD_Init
                0x0000000000000000      0x12c ./HAL/LCD/LCD.o
 .text.LCD_SendCMD
                0x0000000000000000       0x80 ./HAL/LCD/LCD.o
 .text.LCD_SendChar
                0x0000000000000000       0x84 ./HAL/LCD/LCD.o
 .text.LCD_SendString
                0x0000000000000000       0x2c ./HAL/LCD/LCD.o
 .text.LCD_SendSpecialCharacter
                0x0000000000000000       0x6c ./HAL/LCD/LCD.o
 .text.clr_lcd  0x0000000000000000        0xe ./HAL/LCD/LCD.o
 .text.write_4_bits
                0x0000000000000000       0x6c ./HAL/LCD/LCD.o
 .text.lcd_set_cursor
                0x0000000000000000       0x4e ./HAL/LCD/LCD.o
 .text.LCD_SendNumber
                0x0000000000000000      0x19c ./HAL/LCD/LCD.o
 .text.mdelay   0x0000000000000000       0x30 ./HAL/LCD/LCD.o
 .text.udelay   0x0000000000000000       0x28 ./HAL/LCD/LCD.o
 .debug_info    0x0000000000000000      0x473 ./HAL/LCD/LCD.o
 .debug_abbrev  0x0000000000000000      0x184 ./HAL/LCD/LCD.o
 .debug_aranges
                0x0000000000000000       0x70 ./HAL/LCD/LCD.o
 .debug_ranges  0x0000000000000000       0x60 ./HAL/LCD/LCD.o
 .debug_macro   0x0000000000000000       0xb4 ./HAL/LCD/LCD.o
 .debug_macro   0x0000000000000000      0xa78 ./HAL/LCD/LCD.o
 .debug_macro   0x0000000000000000       0x22 ./HAL/LCD/LCD.o
 .debug_macro   0x0000000000000000       0x8e ./HAL/LCD/LCD.o
 .debug_macro   0x0000000000000000       0x51 ./HAL/LCD/LCD.o
 .debug_macro   0x0000000000000000      0x103 ./HAL/LCD/LCD.o
 .debug_macro   0x0000000000000000       0x6a ./HAL/LCD/LCD.o
 .debug_macro   0x0000000000000000      0x1df ./HAL/LCD/LCD.o
 .debug_macro   0x0000000000000000      0x16c ./HAL/LCD/LCD.o
 .debug_macro   0x0000000000000000      0x1ae ./HAL/LCD/LCD.o
 .debug_macro   0x0000000000000000       0xb8 ./HAL/LCD/LCD.o
 .debug_macro   0x0000000000000000       0x1c ./HAL/LCD/LCD.o
 .debug_macro   0x0000000000000000       0x6a ./HAL/LCD/LCD.o
 .debug_line    0x0000000000000000      0x7ad ./HAL/LCD/LCD.o
 .debug_str     0x0000000000000000     0x4c07 ./HAL/LCD/LCD.o
 .comment       0x0000000000000000       0x51 ./HAL/LCD/LCD.o
 .debug_frame   0x0000000000000000      0x19c ./HAL/LCD/LCD.o
 .ARM.attributes
                0x0000000000000000       0x2e ./HAL/LCD/LCD.o
 .group         0x0000000000000000        0xc ./HAL/LEDs/leds.o
 .group         0x0000000000000000        0xc ./HAL/LEDs/leds.o
 .group         0x0000000000000000        0xc ./HAL/LEDs/leds.o
 .group         0x0000000000000000        0xc ./HAL/LEDs/leds.o
 .group         0x0000000000000000        0xc ./HAL/LEDs/leds.o
 .group         0x0000000000000000        0xc ./HAL/LEDs/leds.o
 .group         0x0000000000000000        0xc ./HAL/LEDs/leds.o
 .group         0x0000000000000000        0xc ./HAL/LEDs/leds.o
 .group         0x0000000000000000        0xc ./HAL/LEDs/leds.o
 .group         0x0000000000000000        0xc ./HAL/LEDs/leds.o
 .group         0x0000000000000000        0xc ./HAL/LEDs/leds.o
 .text          0x0000000000000000        0x0 ./HAL/LEDs/leds.o
 .data          0x0000000000000000        0x0 ./HAL/LEDs/leds.o
 .bss           0x0000000000000000        0x0 ./HAL/LEDs/leds.o
 .text.LED_ON   0x0000000000000000       0x28 ./HAL/LEDs/leds.o
 .text.LED_OFF  0x0000000000000000       0x2a ./HAL/LEDs/leds.o
 .debug_info    0x0000000000000000      0x1b1 ./HAL/LEDs/leds.o
 .debug_abbrev  0x0000000000000000       0xd6 ./HAL/LEDs/leds.o
 .debug_aranges
                0x0000000000000000       0x28 ./HAL/LEDs/leds.o
 .debug_ranges  0x0000000000000000       0x18 ./HAL/LEDs/leds.o
 .debug_macro   0x0000000000000000       0xaf ./HAL/LEDs/leds.o
 .debug_macro   0x0000000000000000      0xa78 ./HAL/LEDs/leds.o
 .debug_macro   0x0000000000000000       0x22 ./HAL/LEDs/leds.o
 .debug_macro   0x0000000000000000       0x8e ./HAL/LEDs/leds.o
 .debug_macro   0x0000000000000000       0x51 ./HAL/LEDs/leds.o
 .debug_macro   0x0000000000000000      0x103 ./HAL/LEDs/leds.o
 .debug_macro   0x0000000000000000       0x6a ./HAL/LEDs/leds.o
 .debug_macro   0x0000000000000000      0x1df ./HAL/LEDs/leds.o
 .debug_macro   0x0000000000000000      0x16c ./HAL/LEDs/leds.o
 .debug_macro   0x0000000000000000      0x1ae ./HAL/LEDs/leds.o
 .debug_macro   0x0000000000000000       0xb8 ./HAL/LEDs/leds.o
 .debug_macro   0x0000000000000000       0x1c ./HAL/LEDs/leds.o
 .debug_line    0x0000000000000000      0x576 ./HAL/LEDs/leds.o
 .debug_str     0x0000000000000000     0x4972 ./HAL/LEDs/leds.o
 .comment       0x0000000000000000       0x51 ./HAL/LEDs/leds.o
 .debug_frame   0x0000000000000000       0x60 ./HAL/LEDs/leds.o
 .ARM.attributes
                0x0000000000000000       0x2e ./HAL/LEDs/leds.o
 .group         0x0000000000000000        0xc ./HAL/SSD/ssd.o
 .group         0x0000000000000000        0xc ./HAL/SSD/ssd.o
 .group         0x0000000000000000        0xc ./HAL/SSD/ssd.o
 .group         0x0000000000000000        0xc ./HAL/SSD/ssd.o
 .group         0x0000000000000000        0xc ./HAL/SSD/ssd.o
 .group         0x0000000000000000        0xc ./HAL/SSD/ssd.o
 .group         0x0000000000000000        0xc ./HAL/SSD/ssd.o
 .group         0x0000000000000000        0xc ./HAL/SSD/ssd.o
 .group         0x0000000000000000        0xc ./HAL/SSD/ssd.o
 .group         0x0000000000000000        0xc ./HAL/SSD/ssd.o
 .group         0x0000000000000000        0xc ./HAL/SSD/ssd.o
 .group         0x0000000000000000        0xc ./HAL/SSD/ssd.o
 .text          0x0000000000000000        0x0 ./HAL/SSD/ssd.o
 .data          0x0000000000000000        0x0 ./HAL/SSD/ssd.o
 .bss           0x0000000000000000        0x0 ./HAL/SSD/ssd.o
 .bss.SSD_PinHandle
                0x0000000000000000        0xc ./HAL/SSD/ssd.o
 .text.SSD_Init
                0x0000000000000000       0x88 ./HAL/SSD/ssd.o
 .text.SSDDispNum
                0x0000000000000000      0x158 ./HAL/SSD/ssd.o
 .debug_info    0x0000000000000000      0x250 ./HAL/SSD/ssd.o
 .debug_abbrev  0x0000000000000000      0x105 ./HAL/SSD/ssd.o
 .debug_aranges
                0x0000000000000000       0x28 ./HAL/SSD/ssd.o
 .debug_ranges  0x0000000000000000       0x18 ./HAL/SSD/ssd.o
 .debug_macro   0x0000000000000000       0xb4 ./HAL/SSD/ssd.o
 .debug_macro   0x0000000000000000      0xa78 ./HAL/SSD/ssd.o
 .debug_macro   0x0000000000000000       0x22 ./HAL/SSD/ssd.o
 .debug_macro   0x0000000000000000       0x8e ./HAL/SSD/ssd.o
 .debug_macro   0x0000000000000000       0x51 ./HAL/SSD/ssd.o
 .debug_macro   0x0000000000000000      0x103 ./HAL/SSD/ssd.o
 .debug_macro   0x0000000000000000       0x6a ./HAL/SSD/ssd.o
 .debug_macro   0x0000000000000000      0x1df ./HAL/SSD/ssd.o
 .debug_macro   0x0000000000000000      0x16c ./HAL/SSD/ssd.o
 .debug_macro   0x0000000000000000      0x1ae ./HAL/SSD/ssd.o
 .debug_macro   0x0000000000000000       0xb8 ./HAL/SSD/ssd.o
 .debug_macro   0x0000000000000000       0x1c ./HAL/SSD/ssd.o
 .debug_macro   0x0000000000000000       0x58 ./HAL/SSD/ssd.o
 .debug_line    0x0000000000000000      0x5e6 ./HAL/SSD/ssd.o
 .debug_str     0x0000000000000000     0x4a9a ./HAL/SSD/ssd.o
 .comment       0x0000000000000000       0x51 ./HAL/SSD/ssd.o
 .debug_frame   0x0000000000000000       0x54 ./HAL/SSD/ssd.o
 .ARM.attributes
                0x0000000000000000       0x2e ./HAL/SSD/ssd.o
 .group         0x0000000000000000        0xc ./MCAL/EXTI/stm32f446_exti.o
 .group         0x0000000000000000        0xc ./MCAL/EXTI/stm32f446_exti.o
 .group         0x0000000000000000        0xc ./MCAL/EXTI/stm32f446_exti.o
 .group         0x0000000000000000        0xc ./MCAL/EXTI/stm32f446_exti.o
 .group         0x0000000000000000        0xc ./MCAL/EXTI/stm32f446_exti.o
 .group         0x0000000000000000        0xc ./MCAL/EXTI/stm32f446_exti.o
 .group         0x0000000000000000        0xc ./MCAL/EXTI/stm32f446_exti.o
 .group         0x0000000000000000        0xc ./MCAL/EXTI/stm32f446_exti.o
 .group         0x0000000000000000        0xc ./MCAL/EXTI/stm32f446_exti.o
 .group         0x0000000000000000        0xc ./MCAL/EXTI/stm32f446_exti.o
 .group         0x0000000000000000        0xc ./MCAL/EXTI/stm32f446_exti.o
 .text          0x0000000000000000        0x0 ./MCAL/EXTI/stm32f446_exti.o
 .data          0x0000000000000000        0x0 ./MCAL/EXTI/stm32f446_exti.o
 .bss           0x0000000000000000        0x0 ./MCAL/EXTI/stm32f446_exti.o
 .debug_macro   0x0000000000000000      0xa78 ./MCAL/EXTI/stm32f446_exti.o
 .debug_macro   0x0000000000000000       0x22 ./MCAL/EXTI/stm32f446_exti.o
 .debug_macro   0x0000000000000000       0x8e ./MCAL/EXTI/stm32f446_exti.o
 .debug_macro   0x0000000000000000       0x51 ./MCAL/EXTI/stm32f446_exti.o
 .debug_macro   0x0000000000000000      0x103 ./MCAL/EXTI/stm32f446_exti.o
 .debug_macro   0x0000000000000000       0x6a ./MCAL/EXTI/stm32f446_exti.o
 .debug_macro   0x0000000000000000      0x1df ./MCAL/EXTI/stm32f446_exti.o
 .debug_macro   0x0000000000000000      0x16c ./MCAL/EXTI/stm32f446_exti.o
 .debug_macro   0x0000000000000000      0x1ae ./MCAL/EXTI/stm32f446_exti.o
 .debug_macro   0x0000000000000000       0xb8 ./MCAL/EXTI/stm32f446_exti.o
 .group         0x0000000000000000        0xc ./MCAL/GPIO/stm32f446_gpio.o
 .group         0x0000000000000000        0xc ./MCAL/GPIO/stm32f446_gpio.o
 .group         0x0000000000000000        0xc ./MCAL/GPIO/stm32f446_gpio.o
 .group         0x0000000000000000        0xc ./MCAL/GPIO/stm32f446_gpio.o
 .group         0x0000000000000000        0xc ./MCAL/GPIO/stm32f446_gpio.o
 .group         0x0000000000000000        0xc ./MCAL/GPIO/stm32f446_gpio.o
 .group         0x0000000000000000        0xc ./MCAL/GPIO/stm32f446_gpio.o
 .group         0x0000000000000000        0xc ./MCAL/GPIO/stm32f446_gpio.o
 .group         0x0000000000000000        0xc ./MCAL/GPIO/stm32f446_gpio.o
 .group         0x0000000000000000        0xc ./MCAL/GPIO/stm32f446_gpio.o
 .group         0x0000000000000000        0xc ./MCAL/GPIO/stm32f446_gpio.o
 .text          0x0000000000000000        0x0 ./MCAL/GPIO/stm32f446_gpio.o
 .data          0x0000000000000000        0x0 ./MCAL/GPIO/stm32f446_gpio.o
 .bss           0x0000000000000000        0x0 ./MCAL/GPIO/stm32f446_gpio.o
 .text.GPIO_WriteToPin
                0x0000000000000000       0x48 ./MCAL/GPIO/stm32f446_gpio.o
 .text.GPIO_WriteToPort
                0x0000000000000000       0x1c ./MCAL/GPIO/stm32f446_gpio.o
 .text.GPIO_WriteToPinFAST
                0x0000000000000000       0x4e ./MCAL/GPIO/stm32f446_gpio.o
 .text.GPIO_ReadFromPin
                0x0000000000000000       0x2e ./MCAL/GPIO/stm32f446_gpio.o
 .text.GPIO_ReadFromPort
                0x0000000000000000       0x1a ./MCAL/GPIO/stm32f446_gpio.o
 .debug_macro   0x0000000000000000      0xa78 ./MCAL/GPIO/stm32f446_gpio.o
 .debug_macro   0x0000000000000000       0x22 ./MCAL/GPIO/stm32f446_gpio.o
 .debug_macro   0x0000000000000000       0x8e ./MCAL/GPIO/stm32f446_gpio.o
 .debug_macro   0x0000000000000000       0x51 ./MCAL/GPIO/stm32f446_gpio.o
 .debug_macro   0x0000000000000000      0x103 ./MCAL/GPIO/stm32f446_gpio.o
 .debug_macro   0x0000000000000000       0x6a ./MCAL/GPIO/stm32f446_gpio.o
 .debug_macro   0x0000000000000000      0x1df ./MCAL/GPIO/stm32f446_gpio.o
 .debug_macro   0x0000000000000000      0x16c ./MCAL/GPIO/stm32f446_gpio.o
 .debug_macro   0x0000000000000000      0x1ae ./MCAL/GPIO/stm32f446_gpio.o
 .debug_macro   0x0000000000000000       0x1c ./MCAL/GPIO/stm32f446_gpio.o
 .group         0x0000000000000000        0xc ./MCAL/NVIC/stm32f446_nvic.o
 .group         0x0000000000000000        0xc ./MCAL/NVIC/stm32f446_nvic.o
 .group         0x0000000000000000        0xc ./MCAL/NVIC/stm32f446_nvic.o
 .group         0x0000000000000000        0xc ./MCAL/NVIC/stm32f446_nvic.o
 .group         0x0000000000000000        0xc ./MCAL/NVIC/stm32f446_nvic.o
 .group         0x0000000000000000        0xc ./MCAL/NVIC/stm32f446_nvic.o
 .group         0x0000000000000000        0xc ./MCAL/NVIC/stm32f446_nvic.o
 .group         0x0000000000000000        0xc ./MCAL/NVIC/stm32f446_nvic.o
 .group         0x0000000000000000        0xc ./MCAL/NVIC/stm32f446_nvic.o
 .group         0x0000000000000000        0xc ./MCAL/NVIC/stm32f446_nvic.o
 .group         0x0000000000000000        0xc ./MCAL/NVIC/stm32f446_nvic.o
 .text          0x0000000000000000        0x0 ./MCAL/NVIC/stm32f446_nvic.o
 .data          0x0000000000000000        0x0 ./MCAL/NVIC/stm32f446_nvic.o
 .bss           0x0000000000000000        0x0 ./MCAL/NVIC/stm32f446_nvic.o
 .data.PRIGROUP
                0x0000000000000000        0x5 ./MCAL/NVIC/stm32f446_nvic.o
 .data.pass     0x0000000000000000        0x4 ./MCAL/NVIC/stm32f446_nvic.o
 .text.NVIC_Init
                0x0000000000000000       0x38 ./MCAL/NVIC/stm32f446_nvic.o
 .text.NVIC_ControlPendingFlag
                0x0000000000000000       0x74 ./MCAL/NVIC/stm32f446_nvic.o
 .text.NVIC_ReadActive
                0x0000000000000000       0x40 ./MCAL/NVIC/stm32f446_nvic.o
 .text.NVIC_SetPriority
                0x0000000000000000       0x90 ./MCAL/NVIC/stm32f446_nvic.o
 .debug_macro   0x0000000000000000      0xa78 ./MCAL/NVIC/stm32f446_nvic.o
 .debug_macro   0x0000000000000000       0x22 ./MCAL/NVIC/stm32f446_nvic.o
 .debug_macro   0x0000000000000000       0x8e ./MCAL/NVIC/stm32f446_nvic.o
 .debug_macro   0x0000000000000000       0x51 ./MCAL/NVIC/stm32f446_nvic.o
 .debug_macro   0x0000000000000000      0x103 ./MCAL/NVIC/stm32f446_nvic.o
 .debug_macro   0x0000000000000000       0x6a ./MCAL/NVIC/stm32f446_nvic.o
 .debug_macro   0x0000000000000000      0x1df ./MCAL/NVIC/stm32f446_nvic.o
 .debug_macro   0x0000000000000000      0x16c ./MCAL/NVIC/stm32f446_nvic.o
 .debug_macro   0x0000000000000000      0x1ae ./MCAL/NVIC/stm32f446_nvic.o
 .debug_macro   0x0000000000000000       0xb8 ./MCAL/NVIC/stm32f446_nvic.o
 .debug_macro   0x0000000000000000       0x1c ./MCAL/NVIC/stm32f446_nvic.o
 .group         0x0000000000000000        0xc ./MCAL/RCC/stm32f446_rcc.o
 .group         0x0000000000000000        0xc ./MCAL/RCC/stm32f446_rcc.o
 .group         0x0000000000000000        0xc ./MCAL/RCC/stm32f446_rcc.o
 .group         0x0000000000000000        0xc ./MCAL/RCC/stm32f446_rcc.o
 .group         0x0000000000000000        0xc ./MCAL/RCC/stm32f446_rcc.o
 .group         0x0000000000000000        0xc ./MCAL/RCC/stm32f446_rcc.o
 .group         0x0000000000000000        0xc ./MCAL/RCC/stm32f446_rcc.o
 .group         0x0000000000000000        0xc ./MCAL/RCC/stm32f446_rcc.o
 .group         0x0000000000000000        0xc ./MCAL/RCC/stm32f446_rcc.o
 .group         0x0000000000000000        0xc ./MCAL/RCC/stm32f446_rcc.o
 .group         0x0000000000000000        0xc ./MCAL/RCC/stm32f446_rcc.o
 .text          0x0000000000000000        0x0 ./MCAL/RCC/stm32f446_rcc.o
 .data          0x0000000000000000        0x0 ./MCAL/RCC/stm32f446_rcc.o
 .bss           0x0000000000000000        0x0 ./MCAL/RCC/stm32f446_rcc.o
 .text.SetClockSystem
                0x0000000000000000       0x40 ./MCAL/RCC/stm32f446_rcc.o
 .text.RCC_DisablePeripheral
                0x0000000000000000       0xa0 ./MCAL/RCC/stm32f446_rcc.o
 .data.AHB_PreScaler
                0x0000000000000000       0x10 ./MCAL/RCC/stm32f446_rcc.o
 .data.APB1_PreScaler
                0x0000000000000000        0x4 ./MCAL/RCC/stm32f446_rcc.o
 .text.RCC_GetPCLK1Value
                0x0000000000000000       0xb0 ./MCAL/RCC/stm32f446_rcc.o
 .text.RCC_GetPCLK2Value
                0x0000000000000000       0xa0 ./MCAL/RCC/stm32f446_rcc.o
 .text.RCC_GetPLLOutputClock
                0x0000000000000000        0xe ./MCAL/RCC/stm32f446_rcc.o
 .debug_macro   0x0000000000000000      0xa78 ./MCAL/RCC/stm32f446_rcc.o
 .debug_macro   0x0000000000000000       0x22 ./MCAL/RCC/stm32f446_rcc.o
 .debug_macro   0x0000000000000000       0x8e ./MCAL/RCC/stm32f446_rcc.o
 .debug_macro   0x0000000000000000       0x51 ./MCAL/RCC/stm32f446_rcc.o
 .debug_macro   0x0000000000000000      0x103 ./MCAL/RCC/stm32f446_rcc.o
 .debug_macro   0x0000000000000000       0x6a ./MCAL/RCC/stm32f446_rcc.o
 .debug_macro   0x0000000000000000      0x1df ./MCAL/RCC/stm32f446_rcc.o
 .debug_macro   0x0000000000000000      0x16c ./MCAL/RCC/stm32f446_rcc.o
 .debug_macro   0x0000000000000000       0xb2 ./MCAL/RCC/stm32f446_rcc.o
 .debug_macro   0x0000000000000000       0x1c ./MCAL/RCC/stm32f446_rcc.o
 .debug_macro   0x0000000000000000      0x1ae ./MCAL/RCC/stm32f446_rcc.o
 .group         0x0000000000000000        0xc ./Src/main.o
 .group         0x0000000000000000        0xc ./Src/main.o
 .group         0x0000000000000000        0xc ./Src/main.o
 .group         0x0000000000000000        0xc ./Src/main.o
 .group         0x0000000000000000        0xc ./Src/main.o
 .group         0x0000000000000000        0xc ./Src/main.o
 .group         0x0000000000000000        0xc ./Src/main.o
 .group         0x0000000000000000        0xc ./Src/main.o
 .group         0x0000000000000000        0xc ./Src/main.o
 .group         0x0000000000000000        0xc ./Src/main.o
 .group         0x0000000000000000        0xc ./Src/main.o
 .text          0x0000000000000000        0x0 ./Src/main.o
 .data          0x0000000000000000        0x0 ./Src/main.o
 .bss           0x0000000000000000        0x0 ./Src/main.o
 .debug_macro   0x0000000000000000      0xa78 ./Src/main.o
 .debug_macro   0x0000000000000000       0x22 ./Src/main.o
 .debug_macro   0x0000000000000000       0x8e ./Src/main.o
 .debug_macro   0x0000000000000000       0x51 ./Src/main.o
 .debug_macro   0x0000000000000000      0x103 ./Src/main.o
 .debug_macro   0x0000000000000000       0x6a ./Src/main.o
 .debug_macro   0x0000000000000000      0x1df ./Src/main.o
 .debug_macro   0x0000000000000000      0x1ae ./Src/main.o
 .debug_macro   0x0000000000000000       0xb8 ./Src/main.o
 .debug_macro   0x0000000000000000       0x1c ./Src/main.o
 .group         0x0000000000000000        0xc ./Src/syscalls.o
 .group         0x0000000000000000        0xc ./Src/syscalls.o
 .group         0x0000000000000000        0xc ./Src/syscalls.o
 .group         0x0000000000000000        0xc ./Src/syscalls.o
 .group         0x0000000000000000        0xc ./Src/syscalls.o
 .group         0x0000000000000000        0xc ./Src/syscalls.o
 .group         0x0000000000000000        0xc ./Src/syscalls.o
 .group         0x0000000000000000        0xc ./Src/syscalls.o
 .group         0x0000000000000000        0xc ./Src/syscalls.o
 .group         0x0000000000000000        0xc ./Src/syscalls.o
 .group         0x0000000000000000        0xc ./Src/syscalls.o
 .group         0x0000000000000000        0xc ./Src/syscalls.o
 .group         0x0000000000000000        0xc ./Src/syscalls.o
 .group         0x0000000000000000        0xc ./Src/syscalls.o
 .group         0x0000000000000000        0xc ./Src/syscalls.o
 .group         0x0000000000000000        0xc ./Src/syscalls.o
 .group         0x0000000000000000        0xc ./Src/syscalls.o
 .group         0x0000000000000000        0xc ./Src/syscalls.o
 .group         0x0000000000000000        0xc ./Src/syscalls.o
 .group         0x0000000000000000        0xc ./Src/syscalls.o
 .group         0x0000000000000000        0xc ./Src/syscalls.o
 .group         0x0000000000000000        0xc ./Src/syscalls.o
 .group         0x0000000000000000        0xc ./Src/syscalls.o
 .group         0x0000000000000000        0xc ./Src/syscalls.o
 .group         0x0000000000000000        0xc ./Src/syscalls.o
 .group         0x0000000000000000        0xc ./Src/syscalls.o
 .group         0x0000000000000000        0xc ./Src/syscalls.o
 .group         0x0000000000000000        0xc ./Src/syscalls.o
 .group         0x0000000000000000        0xc ./Src/syscalls.o
 .group         0x0000000000000000        0xc ./Src/syscalls.o
 .group         0x0000000000000000        0xc ./Src/syscalls.o
 .group         0x0000000000000000        0xc ./Src/syscalls.o
 .group         0x0000000000000000        0xc ./Src/syscalls.o
 .group         0x0000000000000000        0xc ./Src/syscalls.o
 .group         0x0000000000000000        0xc ./Src/syscalls.o
 .group         0x0000000000000000        0xc ./Src/syscalls.o
 .group         0x0000000000000000        0xc ./Src/syscalls.o
 .group         0x0000000000000000        0xc ./Src/syscalls.o
 .group         0x0000000000000000        0xc ./Src/syscalls.o
 .group         0x0000000000000000        0xc ./Src/syscalls.o
 .group         0x0000000000000000        0xc ./Src/syscalls.o
 .group         0x0000000000000000        0xc ./Src/syscalls.o
 .group         0x0000000000000000        0xc ./Src/syscalls.o
 .group         0x0000000000000000        0xc ./Src/syscalls.o
 .group         0x0000000000000000        0xc ./Src/syscalls.o
 .group         0x0000000000000000        0xc ./Src/syscalls.o
 .group         0x0000000000000000        0xc ./Src/syscalls.o
 .text          0x0000000000000000        0x0 ./Src/syscalls.o
 .data          0x0000000000000000        0x0 ./Src/syscalls.o
 .bss           0x0000000000000000        0x0 ./Src/syscalls.o
 .bss.__env     0x0000000000000000        0x4 ./Src/syscalls.o
 .data.environ  0x0000000000000000        0x4 ./Src/syscalls.o
 .text.initialise_monitor_handles
                0x0000000000000000        0xc ./Src/syscalls.o
 .text._getpid  0x0000000000000000        0xe ./Src/syscalls.o
 .text._kill    0x0000000000000000       0x20 ./Src/syscalls.o
 .text._exit    0x0000000000000000       0x14 ./Src/syscalls.o
 .text._read    0x0000000000000000       0x3a ./Src/syscalls.o
 .text._write   0x0000000000000000       0x38 ./Src/syscalls.o
 .text._close   0x0000000000000000       0x16 ./Src/syscalls.o
 .text._fstat   0x0000000000000000       0x1e ./Src/syscalls.o
 .text._isatty  0x0000000000000000       0x14 ./Src/syscalls.o
 .text._lseek   0x0000000000000000       0x18 ./Src/syscalls.o
 .text._open    0x0000000000000000       0x1a ./Src/syscalls.o
 .text._wait    0x0000000000000000       0x1e ./Src/syscalls.o
 .text._unlink  0x0000000000000000       0x1e ./Src/syscalls.o
 .text._times   0x0000000000000000       0x16 ./Src/syscalls.o
 .text._stat    0x0000000000000000       0x1e ./Src/syscalls.o
 .text._link    0x0000000000000000       0x20 ./Src/syscalls.o
 .text._fork    0x0000000000000000       0x16 ./Src/syscalls.o
 .text._execve  0x0000000000000000       0x22 ./Src/syscalls.o
 .debug_info    0x0000000000000000      0x6e0 ./Src/syscalls.o
 .debug_abbrev  0x0000000000000000      0x1b3 ./Src/syscalls.o
 .debug_aranges
                0x0000000000000000       0xa8 ./Src/syscalls.o
 .debug_ranges  0x0000000000000000       0x98 ./Src/syscalls.o
 .debug_macro   0x0000000000000000      0x24c ./Src/syscalls.o
 .debug_macro   0x0000000000000000      0xa78 ./Src/syscalls.o
 .debug_macro   0x0000000000000000       0x22 ./Src/syscalls.o
 .debug_macro   0x0000000000000000       0x4c ./Src/syscalls.o
 .debug_macro   0x0000000000000000       0x18 ./Src/syscalls.o
 .debug_macro   0x0000000000000000       0x94 ./Src/syscalls.o
 .debug_macro   0x0000000000000000       0x3c ./Src/syscalls.o
 .debug_macro   0x0000000000000000       0x34 ./Src/syscalls.o
 .debug_macro   0x0000000000000000       0x57 ./Src/syscalls.o
 .debug_macro   0x0000000000000000      0x174 ./Src/syscalls.o
 .debug_macro   0x0000000000000000      0x341 ./Src/syscalls.o
 .debug_macro   0x0000000000000000       0x16 ./Src/syscalls.o
 .debug_macro   0x0000000000000000       0x43 ./Src/syscalls.o
 .debug_macro   0x0000000000000000       0x34 ./Src/syscalls.o
 .debug_macro   0x0000000000000000       0x10 ./Src/syscalls.o
 .debug_macro   0x0000000000000000       0x58 ./Src/syscalls.o
 .debug_macro   0x0000000000000000       0x71 ./Src/syscalls.o
 .debug_macro   0x0000000000000000       0x1c ./Src/syscalls.o
 .debug_macro   0x0000000000000000      0x12a ./Src/syscalls.o
 .debug_macro   0x0000000000000000       0x10 ./Src/syscalls.o
 .debug_macro   0x0000000000000000       0x35 ./Src/syscalls.o
 .debug_macro   0x0000000000000000       0x10 ./Src/syscalls.o
 .debug_macro   0x0000000000000000       0x10 ./Src/syscalls.o
 .debug_macro   0x0000000000000000       0x10 ./Src/syscalls.o
 .debug_macro   0x0000000000000000       0x6a ./Src/syscalls.o
 .debug_macro   0x0000000000000000       0x1c ./Src/syscalls.o
 .debug_macro   0x0000000000000000       0x52 ./Src/syscalls.o
 .debug_macro   0x0000000000000000       0x22 ./Src/syscalls.o
 .debug_macro   0x0000000000000000       0x10 ./Src/syscalls.o
 .debug_macro   0x0000000000000000       0x52 ./Src/syscalls.o
 .debug_macro   0x0000000000000000       0xd5 ./Src/syscalls.o
 .debug_macro   0x0000000000000000       0x1c ./Src/syscalls.o
 .debug_macro   0x0000000000000000       0x3d ./Src/syscalls.o
 .debug_macro   0x0000000000000000       0x35 ./Src/syscalls.o
 .debug_macro   0x0000000000000000      0x12c ./Src/syscalls.o
 .debug_macro   0x0000000000000000       0x16 ./Src/syscalls.o
 .debug_macro   0x0000000000000000       0x16 ./Src/syscalls.o
 .debug_macro   0x0000000000000000       0x29 ./Src/syscalls.o
 .debug_macro   0x0000000000000000       0x10 ./Src/syscalls.o
 .debug_macro   0x0000000000000000      0x241 ./Src/syscalls.o
 .debug_macro   0x0000000000000000       0x1c ./Src/syscalls.o
 .debug_macro   0x0000000000000000       0x10 ./Src/syscalls.o
 .debug_macro   0x0000000000000000       0x10 ./Src/syscalls.o
 .debug_macro   0x0000000000000000       0x16 ./Src/syscalls.o
 .debug_macro   0x0000000000000000      0x145 ./Src/syscalls.o
 .debug_macro   0x0000000000000000      0x189 ./Src/syscalls.o
 .debug_macro   0x0000000000000000       0x16 ./Src/syscalls.o
 .debug_macro   0x0000000000000000       0xce ./Src/syscalls.o
 .debug_line    0x0000000000000000      0x7f9 ./Src/syscalls.o
 .debug_str     0x0000000000000000     0x8a50 ./Src/syscalls.o
 .comment       0x0000000000000000       0x51 ./Src/syscalls.o
 .debug_frame   0x0000000000000000      0x2ac ./Src/syscalls.o
 .ARM.attributes
                0x0000000000000000       0x2e ./Src/syscalls.o
 .group         0x0000000000000000        0xc ./Src/sysmem.o
 .group         0x0000000000000000        0xc ./Src/sysmem.o
 .group         0x0000000000000000        0xc ./Src/sysmem.o
 .group         0x0000000000000000        0xc ./Src/sysmem.o
 .group         0x0000000000000000        0xc ./Src/sysmem.o
 .group         0x0000000000000000        0xc ./Src/sysmem.o
 .group         0x0000000000000000        0xc ./Src/sysmem.o
 .group         0x0000000000000000        0xc ./Src/sysmem.o
 .group         0x0000000000000000        0xc ./Src/sysmem.o
 .group         0x0000000000000000        0xc ./Src/sysmem.o
 .group         0x0000000000000000        0xc ./Src/sysmem.o
 .group         0x0000000000000000        0xc ./Src/sysmem.o
 .group         0x0000000000000000        0xc ./Src/sysmem.o
 .group         0x0000000000000000        0xc ./Src/sysmem.o
 .group         0x0000000000000000        0xc ./Src/sysmem.o
 .group         0x0000000000000000        0xc ./Src/sysmem.o
 .group         0x0000000000000000        0xc ./Src/sysmem.o
 .group         0x0000000000000000        0xc ./Src/sysmem.o
 .group         0x0000000000000000        0xc ./Src/sysmem.o
 .group         0x0000000000000000        0xc ./Src/sysmem.o
 .group         0x0000000000000000        0xc ./Src/sysmem.o
 .group         0x0000000000000000        0xc ./Src/sysmem.o
 .text          0x0000000000000000        0x0 ./Src/sysmem.o
 .data          0x0000000000000000        0x0 ./Src/sysmem.o
 .bss           0x0000000000000000        0x0 ./Src/sysmem.o
 .bss.__sbrk_heap_end
                0x0000000000000000        0x4 ./Src/sysmem.o
 .text._sbrk    0x0000000000000000       0x6c ./Src/sysmem.o
 .debug_info    0x0000000000000000      0x171 ./Src/sysmem.o
 .debug_abbrev  0x0000000000000000       0xbb ./Src/sysmem.o
 .debug_aranges
                0x0000000000000000       0x20 ./Src/sysmem.o
 .debug_ranges  0x0000000000000000       0x10 ./Src/sysmem.o
 .debug_macro   0x0000000000000000       0xff ./Src/sysmem.o
 .debug_macro   0x0000000000000000      0xa78 ./Src/sysmem.o
 .debug_macro   0x0000000000000000       0x10 ./Src/sysmem.o
 .debug_macro   0x0000000000000000       0x22 ./Src/sysmem.o
 .debug_macro   0x0000000000000000       0x4c ./Src/sysmem.o
 .debug_macro   0x0000000000000000       0x18 ./Src/sysmem.o
 .debug_macro   0x0000000000000000       0x94 ./Src/sysmem.o
 .debug_macro   0x0000000000000000       0x3c ./Src/sysmem.o
 .debug_macro   0x0000000000000000       0x34 ./Src/sysmem.o
 .debug_macro   0x0000000000000000      0x174 ./Src/sysmem.o
 .debug_macro   0x0000000000000000       0x16 ./Src/sysmem.o
 .debug_macro   0x0000000000000000       0x43 ./Src/sysmem.o
 .debug_macro   0x0000000000000000       0x57 ./Src/sysmem.o
 .debug_macro   0x0000000000000000       0x34 ./Src/sysmem.o
 .debug_macro   0x0000000000000000       0x10 ./Src/sysmem.o
 .debug_macro   0x0000000000000000       0x58 ./Src/sysmem.o
 .debug_macro   0x0000000000000000       0x71 ./Src/sysmem.o
 .debug_macro   0x0000000000000000       0x1c ./Src/sysmem.o
 .debug_macro   0x0000000000000000      0x12a ./Src/sysmem.o
 .debug_macro   0x0000000000000000      0x23b ./Src/sysmem.o
 .debug_macro   0x0000000000000000      0x103 ./Src/sysmem.o
 .debug_macro   0x0000000000000000       0x6a ./Src/sysmem.o
 .debug_macro   0x0000000000000000      0x1df ./Src/sysmem.o
 .debug_line    0x0000000000000000      0x4ef ./Src/sysmem.o
 .debug_str     0x0000000000000000     0x5d8c ./Src/sysmem.o
 .comment       0x0000000000000000       0x51 ./Src/sysmem.o
 .debug_frame   0x0000000000000000       0x34 ./Src/sysmem.o
 .ARM.attributes
                0x0000000000000000       0x2e ./Src/sysmem.o
 .text          0x0000000000000000       0x14 ./Startup/startup_stm32f446retx.o
 .data          0x0000000000000000        0x0 ./Startup/startup_stm32f446retx.o
 .bss           0x0000000000000000        0x0 ./Startup/startup_stm32f446retx.o
 .text          0x0000000000000000        0x0 c:/st/stm32cubeide_1.12.0/stm32cubeide/plugins/com.st.stm32cube.ide.mcu.externaltools.gnu-tools-for-stm32.10.3-2021.10.win32_1.0.200.202301161003/tools/bin/../lib/gcc/arm-none-eabi/10.3.1/../../../../arm-none-eabi/lib/thumb/v7e-m/nofp\libc_nano.a(lib_a-errno.o)
 .data          0x0000000000000000        0x0 c:/st/stm32cubeide_1.12.0/stm32cubeide/plugins/com.st.stm32cube.ide.mcu.externaltools.gnu-tools-for-stm32.10.3-2021.10.win32_1.0.200.202301161003/tools/bin/../lib/gcc/arm-none-eabi/10.3.1/../../../../arm-none-eabi/lib/thumb/v7e-m/nofp\libc_nano.a(lib_a-errno.o)
 .bss           0x0000000000000000        0x0 c:/st/stm32cubeide_1.12.0/stm32cubeide/plugins/com.st.stm32cube.ide.mcu.externaltools.gnu-tools-for-stm32.10.3-2021.10.win32_1.0.200.202301161003/tools/bin/../lib/gcc/arm-none-eabi/10.3.1/../../../../arm-none-eabi/lib/thumb/v7e-m/nofp\libc_nano.a(lib_a-errno.o)
 .text.__errno  0x0000000000000000        0xc c:/st/stm32cubeide_1.12.0/stm32cubeide/plugins/com.st.stm32cube.ide.mcu.externaltools.gnu-tools-for-stm32.10.3-2021.10.win32_1.0.200.202301161003/tools/bin/../lib/gcc/arm-none-eabi/10.3.1/../../../../arm-none-eabi/lib/thumb/v7e-m/nofp\libc_nano.a(lib_a-errno.o)
 .debug_frame   0x0000000000000000       0x20 c:/st/stm32cubeide_1.12.0/stm32cubeide/plugins/com.st.stm32cube.ide.mcu.externaltools.gnu-tools-for-stm32.10.3-2021.10.win32_1.0.200.202301161003/tools/bin/../lib/gcc/arm-none-eabi/10.3.1/../../../../arm-none-eabi/lib/thumb/v7e-m/nofp\libc_nano.a(lib_a-errno.o)
 .ARM.attributes
                0x0000000000000000       0x2e c:/st/stm32cubeide_1.12.0/stm32cubeide/plugins/com.st.stm32cube.ide.mcu.externaltools.gnu-tools-for-stm32.10.3-2021.10.win32_1.0.200.202301161003/tools/bin/../lib/gcc/arm-none-eabi/10.3.1/../../../../arm-none-eabi/lib/thumb/v7e-m/nofp\libc_nano.a(lib_a-errno.o)
 .text          0x0000000000000000        0x0 c:/st/stm32cubeide_1.12.0/stm32cubeide/plugins/com.st.stm32cube.ide.mcu.externaltools.gnu-tools-for-stm32.10.3-2021.10.win32_1.0.200.202301161003/tools/bin/../lib/gcc/arm-none-eabi/10.3.1/../../../../arm-none-eabi/lib/thumb/v7e-m/nofp\libc_nano.a(lib_a-exit.o)
 .data          0x0000000000000000        0x0 c:/st/stm32cubeide_1.12.0/stm32cubeide/plugins/com.st.stm32cube.ide.mcu.externaltools.gnu-tools-for-stm32.10.3-2021.10.win32_1.0.200.202301161003/tools/bin/../lib/gcc/arm-none-eabi/10.3.1/../../../../arm-none-eabi/lib/thumb/v7e-m/nofp\libc_nano.a(lib_a-exit.o)
 .bss           0x0000000000000000        0x0 c:/st/stm32cubeide_1.12.0/stm32cubeide/plugins/com.st.stm32cube.ide.mcu.externaltools.gnu-tools-for-stm32.10.3-2021.10.win32_1.0.200.202301161003/tools/bin/../lib/gcc/arm-none-eabi/10.3.1/../../../../arm-none-eabi/lib/thumb/v7e-m/nofp\libc_nano.a(lib_a-exit.o)
 .text.exit     0x0000000000000000       0x28 c:/st/stm32cubeide_1.12.0/stm32cubeide/plugins/com.st.stm32cube.ide.mcu.externaltools.gnu-tools-for-stm32.10.3-2021.10.win32_1.0.200.202301161003/tools/bin/../lib/gcc/arm-none-eabi/10.3.1/../../../../arm-none-eabi/lib/thumb/v7e-m/nofp\libc_nano.a(lib_a-exit.o)
 .debug_frame   0x0000000000000000       0x28 c:/st/stm32cubeide_1.12.0/stm32cubeide/plugins/com.st.stm32cube.ide.mcu.externaltools.gnu-tools-for-stm32.10.3-2021.10.win32_1.0.200.202301161003/tools/bin/../lib/gcc/arm-none-eabi/10.3.1/../../../../arm-none-eabi/lib/thumb/v7e-m/nofp\libc_nano.a(lib_a-exit.o)
 .ARM.attributes
                0x0000000000000000       0x2e c:/st/stm32cubeide_1.12.0/stm32cubeide/plugins/com.st.stm32cube.ide.mcu.externaltools.gnu-tools-for-stm32.10.3-2021.10.win32_1.0.200.202301161003/tools/bin/../lib/gcc/arm-none-eabi/10.3.1/../../../../arm-none-eabi/lib/thumb/v7e-m/nofp\libc_nano.a(lib_a-exit.o)
 .text          0x0000000000000000        0x0 c:/st/stm32cubeide_1.12.0/stm32cubeide/plugins/com.st.stm32cube.ide.mcu.externaltools.gnu-tools-for-stm32.10.3-2021.10.win32_1.0.200.202301161003/tools/bin/../lib/gcc/arm-none-eabi/10.3.1/../../../../arm-none-eabi/lib/thumb/v7e-m/nofp\libc_nano.a(lib_a-impure.o)
 .data          0x0000000000000000        0x0 c:/st/stm32cubeide_1.12.0/stm32cubeide/plugins/com.st.stm32cube.ide.mcu.externaltools.gnu-tools-for-stm32.10.3-2021.10.win32_1.0.200.202301161003/tools/bin/../lib/gcc/arm-none-eabi/10.3.1/../../../../arm-none-eabi/lib/thumb/v7e-m/nofp\libc_nano.a(lib_a-impure.o)
 .bss           0x0000000000000000        0x0 c:/st/stm32cubeide_1.12.0/stm32cubeide/plugins/com.st.stm32cube.ide.mcu.externaltools.gnu-tools-for-stm32.10.3-2021.10.win32_1.0.200.202301161003/tools/bin/../lib/gcc/arm-none-eabi/10.3.1/../../../../arm-none-eabi/lib/thumb/v7e-m/nofp\libc_nano.a(lib_a-impure.o)
 .data._impure_ptr
                0x0000000000000000        0x4 c:/st/stm32cubeide_1.12.0/stm32cubeide/plugins/com.st.stm32cube.ide.mcu.externaltools.gnu-tools-for-stm32.10.3-2021.10.win32_1.0.200.202301161003/tools/bin/../lib/gcc/arm-none-eabi/10.3.1/../../../../arm-none-eabi/lib/thumb/v7e-m/nofp\libc_nano.a(lib_a-impure.o)
 .data.impure_data
                0x0000000000000000       0x60 c:/st/stm32cubeide_1.12.0/stm32cubeide/plugins/com.st.stm32cube.ide.mcu.externaltools.gnu-tools-for-stm32.10.3-2021.10.win32_1.0.200.202301161003/tools/bin/../lib/gcc/arm-none-eabi/10.3.1/../../../../arm-none-eabi/lib/thumb/v7e-m/nofp\libc_nano.a(lib_a-impure.o)
 .rodata._global_impure_ptr
                0x0000000000000000        0x4 c:/st/stm32cubeide_1.12.0/stm32cubeide/plugins/com.st.stm32cube.ide.mcu.externaltools.gnu-tools-for-stm32.10.3-2021.10.win32_1.0.200.202301161003/tools/bin/../lib/gcc/arm-none-eabi/10.3.1/../../../../arm-none-eabi/lib/thumb/v7e-m/nofp\libc_nano.a(lib_a-impure.o)
 .ARM.attributes
                0x0000000000000000       0x2e c:/st/stm32cubeide_1.12.0/stm32cubeide/plugins/com.st.stm32cube.ide.mcu.externaltools.gnu-tools-for-stm32.10.3-2021.10.win32_1.0.200.202301161003/tools/bin/../lib/gcc/arm-none-eabi/10.3.1/../../../../arm-none-eabi/lib/thumb/v7e-m/nofp\libc_nano.a(lib_a-impure.o)
 .text          0x0000000000000000        0x0 c:/st/stm32cubeide_1.12.0/stm32cubeide/plugins/com.st.stm32cube.ide.mcu.externaltools.gnu-tools-for-stm32.10.3-2021.10.win32_1.0.200.202301161003/tools/bin/../lib/gcc/arm-none-eabi/10.3.1/../../../../arm-none-eabi/lib/thumb/v7e-m/nofp\libc_nano.a(lib_a-init.o)
 .data          0x0000000000000000        0x0 c:/st/stm32cubeide_1.12.0/stm32cubeide/plugins/com.st.stm32cube.ide.mcu.externaltools.gnu-tools-for-stm32.10.3-2021.10.win32_1.0.200.202301161003/tools/bin/../lib/gcc/arm-none-eabi/10.3.1/../../../../arm-none-eabi/lib/thumb/v7e-m/nofp\libc_nano.a(lib_a-init.o)
 .bss           0x0000000000000000        0x0 c:/st/stm32cubeide_1.12.0/stm32cubeide/plugins/com.st.stm32cube.ide.mcu.externaltools.gnu-tools-for-stm32.10.3-2021.10.win32_1.0.200.202301161003/tools/bin/../lib/gcc/arm-none-eabi/10.3.1/../../../../arm-none-eabi/lib/thumb/v7e-m/nofp\libc_nano.a(lib_a-init.o)
 .text          0x0000000000000000        0x0 c:/st/stm32cubeide_1.12.0/stm32cubeide/plugins/com.st.stm32cube.ide.mcu.externaltools.gnu-tools-for-stm32.10.3-2021.10.win32_1.0.200.202301161003/tools/bin/../lib/gcc/arm-none-eabi/10.3.1/../../../../arm-none-eabi/lib/thumb/v7e-m/nofp\libc_nano.a(lib_a-memset.o)
 .data          0x0000000000000000        0x0 c:/st/stm32cubeide_1.12.0/stm32cubeide/plugins/com.st.stm32cube.ide.mcu.externaltools.gnu-tools-for-stm32.10.3-2021.10.win32_1.0.200.202301161003/tools/bin/../lib/gcc/arm-none-eabi/10.3.1/../../../../arm-none-eabi/lib/thumb/v7e-m/nofp\libc_nano.a(lib_a-memset.o)
 .bss           0x0000000000000000        0x0 c:/st/stm32cubeide_1.12.0/stm32cubeide/plugins/com.st.stm32cube.ide.mcu.externaltools.gnu-tools-for-stm32.10.3-2021.10.win32_1.0.200.202301161003/tools/bin/../lib/gcc/arm-none-eabi/10.3.1/../../../../arm-none-eabi/lib/thumb/v7e-m/nofp\libc_nano.a(lib_a-memset.o)
 .text.memset   0x0000000000000000       0x10 c:/st/stm32cubeide_1.12.0/stm32cubeide/plugins/com.st.stm32cube.ide.mcu.externaltools.gnu-tools-for-stm32.10.3-2021.10.win32_1.0.200.202301161003/tools/bin/../lib/gcc/arm-none-eabi/10.3.1/../../../../arm-none-eabi/lib/thumb/v7e-m/nofp\libc_nano.a(lib_a-memset.o)
 .debug_frame   0x0000000000000000       0x20 c:/st/stm32cubeide_1.12.0/stm32cubeide/plugins/com.st.stm32cube.ide.mcu.externaltools.gnu-tools-for-stm32.10.3-2021.10.win32_1.0.200.202301161003/tools/bin/../lib/gcc/arm-none-eabi/10.3.1/../../../../arm-none-eabi/lib/thumb/v7e-m/nofp\libc_nano.a(lib_a-memset.o)
 .ARM.attributes
                0x0000000000000000       0x2e c:/st/stm32cubeide_1.12.0/stm32cubeide/plugins/com.st.stm32cube.ide.mcu.externaltools.gnu-tools-for-stm32.10.3-2021.10.win32_1.0.200.202301161003/tools/bin/../lib/gcc/arm-none-eabi/10.3.1/../../../../arm-none-eabi/lib/thumb/v7e-m/nofp\libc_nano.a(lib_a-memset.o)
 .text          0x0000000000000000        0x0 c:/st/stm32cubeide_1.12.0/stm32cubeide/plugins/com.st.stm32cube.ide.mcu.externaltools.gnu-tools-for-stm32.10.3-2021.10.win32_1.0.200.202301161003/tools/bin/../lib/gcc/arm-none-eabi/10.3.1/thumb/v7e-m/nofp/crtend.o
 .data          0x0000000000000000        0x0 c:/st/stm32cubeide_1.12.0/stm32cubeide/plugins/com.st.stm32cube.ide.mcu.externaltools.gnu-tools-for-stm32.10.3-2021.10.win32_1.0.200.202301161003/tools/bin/../lib/gcc/arm-none-eabi/10.3.1/thumb/v7e-m/nofp/crtend.o
 .bss           0x0000000000000000        0x0 c:/st/stm32cubeide_1.12.0/stm32cubeide/plugins/com.st.stm32cube.ide.mcu.externaltools.gnu-tools-for-stm32.10.3-2021.10.win32_1.0.200.202301161003/tools/bin/../lib/gcc/arm-none-eabi/10.3.1/thumb/v7e-m/nofp/crtend.o
 .rodata        0x0000000000000000       0x24 c:/st/stm32cubeide_1.12.0/stm32cubeide/plugins/com.st.stm32cube.ide.mcu.externaltools.gnu-tools-for-stm32.10.3-2021.10.win32_1.0.200.202301161003/tools/bin/../lib/gcc/arm-none-eabi/10.3.1/thumb/v7e-m/nofp/crtend.o
 .eh_frame      0x0000000000000000        0x4 c:/st/stm32cubeide_1.12.0/stm32cubeide/plugins/com.st.stm32cube.ide.mcu.externaltools.gnu-tools-for-stm32.10.3-2021.10.win32_1.0.200.202301161003/tools/bin/../lib/gcc/arm-none-eabi/10.3.1/thumb/v7e-m/nofp/crtend.o
 .ARM.attributes
                0x0000000000000000       0x2e c:/st/stm32cubeide_1.12.0/stm32cubeide/plugins/com.st.stm32cube.ide.mcu.externaltools.gnu-tools-for-stm32.10.3-2021.10.win32_1.0.200.202301161003/tools/bin/../lib/gcc/arm-none-eabi/10.3.1/thumb/v7e-m/nofp/crtend.o
 .text          0x0000000000000000        0x0 c:/st/stm32cubeide_1.12.0/stm32cubeide/plugins/com.st.stm32cube.ide.mcu.externaltools.gnu-tools-for-stm32.10.3-2021.10.win32_1.0.200.202301161003/tools/bin/../lib/gcc/arm-none-eabi/10.3.1/thumb/v7e-m/nofp/crtn.o
 .data          0x0000000000000000        0x0 c:/st/stm32cubeide_1.12.0/stm32cubeide/plugins/com.st.stm32cube.ide.mcu.externaltools.gnu-tools-for-stm32.10.3-2021.10.win32_1.0.200.202301161003/tools/bin/../lib/gcc/arm-none-eabi/10.3.1/thumb/v7e-m/nofp/crtn.o
 .bss           0x0000000000000000        0x0 c:/st/stm32cubeide_1.12.0/stm32cubeide/plugins/com.st.stm32cube.ide.mcu.externaltools.gnu-tools-for-stm32.10.3-2021.10.win32_1.0.200.202301161003/tools/bin/../lib/gcc/arm-none-eabi/10.3.1/thumb/v7e-m/nofp/crtn.o

Memory Configuration

Name             Origin             Length             Attributes
RAM              0x0000000020000000 0x0000000000020000 xrw
FLASH            0x0000000008000000 0x0000000000080000 xr
*default*        0x0000000000000000 0xffffffffffffffff

Linker script and memory map

LOAD c:/st/stm32cubeide_1.12.0/stm32cubeide/plugins/com.st.stm32cube.ide.mcu.externaltools.gnu-tools-for-stm32.10.3-2021.10.win32_1.0.200.202301161003/tools/bin/../lib/gcc/arm-none-eabi/10.3.1/thumb/v7e-m/nofp/crti.o
LOAD c:/st/stm32cubeide_1.12.0/stm32cubeide/plugins/com.st.stm32cube.ide.mcu.externaltools.gnu-tools-for-stm32.10.3-2021.10.win32_1.0.200.202301161003/tools/bin/../lib/gcc/arm-none-eabi/10.3.1/thumb/v7e-m/nofp/crtbegin.o
LOAD c:/st/stm32cubeide_1.12.0/stm32cubeide/plugins/com.st.stm32cube.ide.mcu.externaltools.gnu-tools-for-stm32.10.3-2021.10.win32_1.0.200.202301161003/tools/bin/../lib/gcc/arm-none-eabi/10.3.1/../../../../arm-none-eabi/lib/thumb/v7e-m/nofp/crt0.o
LOAD ./HAL/Keypad/keypad.o
LOAD ./HAL/LCD/LCD.o
LOAD ./HAL/LEDs/leds.o
LOAD ./HAL/SSD/ssd.o
LOAD ./MCAL/EXTI/stm32f446_exti.o
LOAD ./MCAL/GPIO/stm32f446_gpio.o
LOAD ./MCAL/NVIC/stm32f446_nvic.o
LOAD ./MCAL/RCC/stm32f446_rcc.o
LOAD ./Src/main.o
LOAD ./Src/syscalls.o
LOAD ./Src/sysmem.o
LOAD ./Startup/startup_stm32f446retx.o
START GROUP
LOAD c:/st/stm32cubeide_1.12.0/stm32cubeide/plugins/com.st.stm32cube.ide.mcu.externaltools.gnu-tools-for-stm32.10.3-2021.10.win32_1.0.200.202301161003/tools/bin/../lib/gcc/arm-none-eabi/10.3.1/../../../../arm-none-eabi/lib/thumb/v7e-m/nofp\libc_nano.a
LOAD c:/st/stm32cubeide_1.12.0/stm32cubeide/plugins/com.st.stm32cube.ide.mcu.externaltools.gnu-tools-for-stm32.10.3-2021.10.win32_1.0.200.202301161003/tools/bin/../lib/gcc/arm-none-eabi/10.3.1/../../../../arm-none-eabi/lib/thumb/v7e-m/nofp\libm.a
END GROUP
START GROUP
LOAD c:/st/stm32cubeide_1.12.0/stm32cubeide/plugins/com.st.stm32cube.ide.mcu.externaltools.gnu-tools-for-stm32.10.3-2021.10.win32_1.0.200.202301161003/tools/bin/../lib/gcc/arm-none-eabi/10.3.1/thumb/v7e-m/nofp\libgcc.a
LOAD c:/st/stm32cubeide_1.12.0/stm32cubeide/plugins/com.st.stm32cube.ide.mcu.externaltools.gnu-tools-for-stm32.10.3-2021.10.win32_1.0.200.202301161003/tools/bin/../lib/gcc/arm-none-eabi/10.3.1/../../../../arm-none-eabi/lib/thumb/v7e-m/nofp\libc_nano.a
END GROUP
START GROUP
LOAD c:/st/stm32cubeide_1.12.0/stm32cubeide/plugins/com.st.stm32cube.ide.mcu.externaltools.gnu-tools-for-stm32.10.3-2021.10.win32_1.0.200.202301161003/tools/bin/../lib/gcc/arm-none-eabi/10.3.1/thumb/v7e-m/nofp\libgcc.a
LOAD c:/st/stm32cubeide_1.12.0/stm32cubeide/plugins/com.st.stm32cube.ide.mcu.externaltools.gnu-tools-for-stm32.10.3-2021.10.win32_1.0.200.202301161003/tools/bin/../lib/gcc/arm-none-eabi/10.3.1/../../../../arm-none-eabi/lib/thumb/v7e-m/nofp\libc_nano.a
LOAD c:/st/stm32cubeide_1.12.0/stm32cubeide/plugins/com.st.stm32cube.ide.mcu.externaltools.gnu-tools-for-stm32.10.3-2021.10.win32_1.0.200.202301161003/tools/bin/../lib/gcc/arm-none-eabi/10.3.1/../../../../arm-none-eabi/lib/thumb/v7e-m/nofp\libnosys.a
END GROUP
START GROUP
LOAD c:/st/stm32cubeide_1.12.0/stm32cubeide/plugins/com.st.stm32cube.ide.mcu.externaltools.gnu-tools-for-stm32.10.3-2021.10.win32_1.0.200.202301161003/tools/bin/../lib/gcc/arm-none-eabi/10.3.1/thumb/v7e-m/nofp\libgcc.a
LOAD c:/st/stm32cubeide_1.12.0/stm32cubeide/plugins/com.st.stm32cube.ide.mcu.externaltools.gnu-tools-for-stm32.10.3-2021.10.win32_1.0.200.202301161003/tools/bin/../lib/gcc/arm-none-eabi/10.3.1/../../../../arm-none-eabi/lib/thumb/v7e-m/nofp\libc_nano.a
LOAD c:/st/stm32cubeide_1.12.0/stm32cubeide/plugins/com.st.stm32cube.ide.mcu.externaltools.gnu-tools-for-stm32.10.3-2021.10.win32_1.0.200.202301161003/tools/bin/../lib/gcc/arm-none-eabi/10.3.1/../../../../arm-none-eabi/lib/thumb/v7e-m/nofp\libnosys.a
END GROUP
LOAD c:/st/stm32cubeide_1.12.0/stm32cubeide/plugins/com.st.stm32cube.ide.mcu.externaltools.gnu-tools-for-stm32.10.3-2021.10.win32_1.0.200.202301161003/tools/bin/../lib/gcc/arm-none-eabi/10.3.1/thumb/v7e-m/nofp/crtend.o
LOAD c:/st/stm32cubeide_1.12.0/stm32cubeide/plugins/com.st.stm32cube.ide.mcu.externaltools.gnu-tools-for-stm32.10.3-2021.10.win32_1.0.200.202301161003/tools/bin/../lib/gcc/arm-none-eabi/10.3.1/thumb/v7e-m/nofp/crtn.o
                0x0000000020020000                _estack = (ORIGIN (RAM) + LENGTH (RAM))
                0x0000000000000200                _Min_Heap_Size = 0x200
                0x0000000000000400                _Min_Stack_Size = 0x400

.isr_vector     0x0000000008000000      0x1c4
                0x0000000008000000                . = ALIGN (0x4)
 *(.isr_vector)
 .isr_vector    0x0000000008000000      0x1c4 ./Startup/startup_stm32f446retx.o
                0x0000000008000000                g_pfnVectors
                0x00000000080001c4                . = ALIGN (0x4)

.text           0x00000000080001c4      0x690
                0x00000000080001c4                . = ALIGN (0x4)
 *(.text)
 .text          0x00000000080001c4       0x40 c:/st/stm32cubeide_1.12.0/stm32cubeide/plugins/com.st.stm32cube.ide.mcu.externaltools.gnu-tools-for-stm32.10.3-2021.10.win32_1.0.200.202301161003/tools/bin/../lib/gcc/arm-none-eabi/10.3.1/thumb/v7e-m/nofp/crtbegin.o
 *(.text*)
 .text.EXTI_Init
                0x0000000008000204      0x184 ./MCAL/EXTI/stm32f446_exti.o
                0x0000000008000204                EXTI_Init
 .text.EXTI_ClearPending
                0x0000000008000388       0x40 ./MCAL/EXTI/stm32f446_exti.o
                0x0000000008000388                EXTI_ClearPending
 .text.GPIO_EnablePeriClock
                0x00000000080003c8       0xb8 ./MCAL/GPIO/stm32f446_gpio.o
 .text.GPIO_Init
                0x0000000008000480      0x17e ./MCAL/GPIO/stm32f446_gpio.o
                0x0000000008000480                GPIO_Init
 .text.GPIO_TogglePin
                0x00000000080005fe       0x28 ./MCAL/GPIO/stm32f446_gpio.o
                0x00000000080005fe                GPIO_TogglePin
 *fill*         0x0000000008000626        0x2 
 .text.NVIC_ControlPeripheral
                0x0000000008000628       0x70 ./MCAL/NVIC/stm32f446_nvic.o
                0x0000000008000628                NVIC_ControlPeripheral
 .text.RCC_EnablePeripheral
                0x0000000008000698       0x98 ./MCAL/RCC/stm32f446_rcc.o
                0x0000000008000698                RCC_EnablePeripheral
 .text.GPIO_MainInit
                0x0000000008000730       0x34 ./Src/main.o
                0x0000000008000730                GPIO_MainInit
 .text.main     0x0000000008000764       0x20 ./Src/main.o
                0x0000000008000764                main
 .text.EXTI15_10_IRQHandler
                0x0000000008000784       0x1c ./Src/main.o
                0x0000000008000784                EXTI15_10_IRQHandler
 .text.Reset_Handler
                0x00000000080007a0       0x50 ./Startup/startup_stm32f446retx.o
                0x00000000080007a0                Reset_Handler
 .text.Default_Handler
                0x00000000080007f0        0x2 ./Startup/startup_stm32f446retx.o
                0x00000000080007f0                RTC_Alarm_IRQHandler
                0x00000000080007f0                EXTI2_IRQHandler
                0x00000000080007f0                TIM8_CC_IRQHandler
                0x00000000080007f0                SPDIF_Rx_IRQHandler
                0x00000000080007f0                DebugMon_Handler
                0x00000000080007f0                SPI4_IRQHandler
                0x00000000080007f0                TIM1_CC_IRQHandler
                0x00000000080007f0                QuadSPI_IRQHandler
                0x00000000080007f0                DMA2_Stream5_IRQHandler
                0x00000000080007f0                HardFault_Handler
                0x00000000080007f0                DMA1_Stream5_IRQHandler
                0x00000000080007f0                SysTick_Handler
                0x00000000080007f0                PVD_IRQHandler
                0x00000000080007f0                SDIO_IRQHandler
                0x00000000080007f0                TAMP_STAMP_IRQHandler
                0x00000000080007f0                PendSV_Handler
                0x00000000080007f0                NMI_Handler
                0x00000000080007f0                CAN2_RX1_IRQHandler
                0x00000000080007f0                EXTI3_IRQHandler
                0x00000000080007f0                TIM8_TRG_COM_TIM14_IRQHandler
                0x00000000080007f0                TIM1_UP_TIM10_IRQHandler
                0x00000000080007f0                FMPI2C1_error_IRQHandler
                0x00000000080007f0                TIM8_UP_TIM13_IRQHandler
                0x00000000080007f0                I2C3_ER_IRQHandler
                0x00000000080007f0                EXTI0_IRQHandler
                0x00000000080007f0                I2C2_EV_IRQHandler
                0x00000000080007f0                DMA1_Stream2_IRQHandler
                0x00000000080007f0                CAN1_RX0_IRQHandler
                0x00000000080007f0                OTG_HS_WKUP_IRQHandler
                0x00000000080007f0                UsageFault_Handler
                0x00000000080007f0                CAN2_SCE_IRQHandler
                0x00000000080007f0                DMA2_Stream2_IRQHandler
                0x00000000080007f0                SPI1_IRQHandler
                0x00000000080007f0                TIM6_DAC_IRQHandler
                0x00000000080007f0                TIM1_BRK_TIM9_IRQHandler
                0x00000000080007f0                DCMI_IRQHandler
                0x00000000080007f0                CAN2_RX0_IRQHandler
                0x00000000080007f0                DMA2_Stream3_IRQHandler
                0x00000000080007f0                FMPI2C1_IRQHandler
                0x00000000080007f0                SAI2_IRQHandler
                0x00000000080007f0                USART6_IRQHandler
                0x00000000080007f0                USART3_IRQHandler
                0x00000000080007f0                CAN1_RX1_IRQHandler
                0x00000000080007f0                UART5_IRQHandler
                0x00000000080007f0                DMA2_Stream0_IRQHandler
                0x00000000080007f0                TIM4_IRQHandler
                0x00000000080007f0                I2C1_EV_IRQHandler
                0x00000000080007f0                HDMI_CEC_IRQHandler
                0x00000000080007f0                DMA1_Stream6_IRQHandler
                0x00000000080007f0                DMA1_Stream1_IRQHandler
                0x00000000080007f0                UART4_IRQHandler
                0x00000000080007f0                TIM3_IRQHandler
                0x00000000080007f0                RCC_IRQHandler
                0x00000000080007f0                TIM8_BRK_TIM12_IRQHandler
                0x00000000080007f0                Default_Handler
                0x00000000080007f0                ADC_IRQHandler
                0x00000000080007f0                DMA1_Stream7_IRQHandler
                0x00000000080007f0                TIM7_IRQHandler
                0x00000000080007f0                CAN2_TX_IRQHandler
                0x00000000080007f0                TIM5_IRQHandler
                0x00000000080007f0                DMA2_Stream7_IRQHandler
                0x00000000080007f0                I2C3_EV_IRQHandler
                0x00000000080007f0                EXTI9_5_IRQHandler
                0x00000000080007f0                RTC_WKUP_IRQHandler
                0x00000000080007f0                SPI2_IRQHandler
                0x00000000080007f0                OTG_HS_EP1_IN_IRQHandler
                0x00000000080007f0                MemManage_Handler
                0x00000000080007f0                DMA1_Stream0_IRQHandler
                0x00000000080007f0                CAN1_TX_IRQHandler
                0x00000000080007f0                SVC_Handler
                0x00000000080007f0                EXTI4_IRQHandler
                0x00000000080007f0                OTG_HS_EP1_OUT_IRQHandler
                0x00000000080007f0                WWDG_IRQHandler
                0x00000000080007f0                TIM2_IRQHandler
                0x00000000080007f0                OTG_FS_WKUP_IRQHandler
                0x00000000080007f0                TIM1_TRG_COM_TIM11_IRQHandler
                0x00000000080007f0                OTG_HS_IRQHandler
                0x00000000080007f0                EXTI1_IRQHandler
                0x00000000080007f0                USART2_IRQHandler
                0x00000000080007f0                I2C2_ER_IRQHandler
                0x00000000080007f0                DMA2_Stream1_IRQHandler
                0x00000000080007f0                CAN1_SCE_IRQHandler
                0x00000000080007f0                FLASH_IRQHandler
                0x00000000080007f0                DMA2_Stream4_IRQHandler
                0x00000000080007f0                BusFault_Handler
                0x00000000080007f0                USART1_IRQHandler
                0x00000000080007f0                OTG_FS_IRQHandler
                0x00000000080007f0                SPI3_IRQHandler
                0x00000000080007f0                DMA1_Stream4_IRQHandler
                0x00000000080007f0                I2C1_ER_IRQHandler
                0x00000000080007f0                FMC_IRQHandler
                0x00000000080007f0                DMA2_Stream6_IRQHandler
                0x00000000080007f0                SAI1_IRQHandler
                0x00000000080007f0                DMA1_Stream3_IRQHandler
 *fill*         0x00000000080007f2        0x2 
 .text.__libc_init_array
                0x00000000080007f4       0x48 c:/st/stm32cubeide_1.12.0/stm32cubeide/plugins/com.st.stm32cube.ide.mcu.externaltools.gnu-tools-for-stm32.10.3-2021.10.win32_1.0.200.202301161003/tools/bin/../lib/gcc/arm-none-eabi/10.3.1/../../../../arm-none-eabi/lib/thumb/v7e-m/nofp\libc_nano.a(lib_a-init.o)
                0x00000000080007f4                __libc_init_array
 *(.glue_7)
 .glue_7        0x000000000800083c        0x0 linker stubs
 *(.glue_7t)
 .glue_7t       0x000000000800083c        0x0 linker stubs
 *(.eh_frame)
 .eh_frame      0x000000000800083c        0x0 c:/st/stm32cubeide_1.12.0/stm32cubeide/plugins/com.st.stm32cube.ide.mcu.externaltools.gnu-tools-for-stm32.10.3-2021.10.win32_1.0.200.202301161003/tools/bin/../lib/gcc/arm-none-eabi/10.3.1/thumb/v7e-m/nofp/crtbegin.o
 *(.init)
 .init          0x000000000800083c        0x4 c:/st/stm32cubeide_1.12.0/stm32cubeide/plugins/com.st.stm32cube.ide.mcu.externaltools.gnu-tools-for-stm32.10.3-2021.10.win32_1.0.200.202301161003/tools/bin/../lib/gcc/arm-none-eabi/10.3.1/thumb/v7e-m/nofp/crti.o
                0x000000000800083c                _init
 .init          0x0000000008000840        0x8 c:/st/stm32cubeide_1.12.0/stm32cubeide/plugins/com.st.stm32cube.ide.mcu.externaltools.gnu-tools-for-stm32.10.3-2021.10.win32_1.0.200.202301161003/tools/bin/../lib/gcc/arm-none-eabi/10.3.1/thumb/v7e-m/nofp/crtn.o
 *(.fini)
 .fini          0x0000000008000848        0x4 c:/st/stm32cubeide_1.12.0/stm32cubeide/plugins/com.st.stm32cube.ide.mcu.externaltools.gnu-tools-for-stm32.10.3-2021.10.win32_1.0.200.202301161003/tools/bin/../lib/gcc/arm-none-eabi/10.3.1/thumb/v7e-m/nofp/crti.o
                0x0000000008000848                _fini
 .fini          0x000000000800084c        0x8 c:/st/stm32cubeide_1.12.0/stm32cubeide/plugins/com.st.stm32cube.ide.mcu.externaltools.gnu-tools-for-stm32.10.3-2021.10.win32_1.0.200.202301161003/tools/bin/../lib/gcc/arm-none-eabi/10.3.1/thumb/v7e-m/nofp/crtn.o
                0x0000000008000854                . = ALIGN (0x4)
                0x0000000008000854                _etext = .

.vfp11_veneer   0x0000000008000854        0x0
 .vfp11_veneer  0x0000000008000854        0x0 linker stubs

.v4_bx          0x0000000008000854        0x0
 .v4_bx         0x0000000008000854        0x0 linker stubs

.iplt           0x0000000008000854        0x0
 .iplt          0x0000000008000854        0x0 c:/st/stm32cubeide_1.12.0/stm32cubeide/plugins/com.st.stm32cube.ide.mcu.externaltools.gnu-tools-for-stm32.10.3-2021.10.win32_1.0.200.202301161003/tools/bin/../lib/gcc/arm-none-eabi/10.3.1/thumb/v7e-m/nofp/crtbegin.o

.rel.dyn        0x0000000008000854        0x0
 .rel.iplt      0x0000000008000854        0x0 c:/st/stm32cubeide_1.12.0/stm32cubeide/plugins/com.st.stm32cube.ide.mcu.externaltools.gnu-tools-for-stm32.10.3-2021.10.win32_1.0.200.202301161003/tools/bin/../lib/gcc/arm-none-eabi/10.3.1/thumb/v7e-m/nofp/crtbegin.o

.rodata         0x0000000008000854        0x0
                0x0000000008000854                . = ALIGN (0x4)
 *(.rodata)
 *(.rodata*)
                0x0000000008000854                . = ALIGN (0x4)

.ARM.extab      0x0000000008000854        0x0
                0x0000000008000854                . = ALIGN (0x4)
 *(.ARM.extab* .gnu.linkonce.armextab.*)
                0x0000000008000854                . = ALIGN (0x4)

.ARM            0x0000000008000854        0x0
                0x0000000008000854                . = ALIGN (0x4)
                0x0000000008000854                __exidx_start = .
 *(.ARM.exidx*)
                0x0000000008000854                __exidx_end = .
                0x0000000008000854                . = ALIGN (0x4)

.preinit_array  0x0000000008000854        0x0
                0x0000000008000854                . = ALIGN (0x4)
                0x0000000008000854                PROVIDE (__preinit_array_start = .)
 *(.preinit_array*)
                0x0000000008000854                PROVIDE (__preinit_array_end = .)
                0x0000000008000854                . = ALIGN (0x4)

.init_array     0x0000000008000854        0x4
                0x0000000008000854                . = ALIGN (0x4)
                0x0000000008000854                PROVIDE (__init_array_start = .)
 *(SORT_BY_NAME(.init_array.*))
 *(.init_array*)
 .init_array    0x0000000008000854        0x4 c:/st/stm32cubeide_1.12.0/stm32cubeide/plugins/com.st.stm32cube.ide.mcu.externaltools.gnu-tools-for-stm32.10.3-2021.10.win32_1.0.200.202301161003/tools/bin/../lib/gcc/arm-none-eabi/10.3.1/thumb/v7e-m/nofp/crtbegin.o
                0x0000000008000858                PROVIDE (__init_array_end = .)
                0x0000000008000858                . = ALIGN (0x4)

.fini_array     0x0000000008000858        0x4
                0x0000000008000858                . = ALIGN (0x4)
                [!provide]                        PROVIDE (__fini_array_start = .)
 *(SORT_BY_NAME(.fini_array.*))
 *(.fini_array*)
 .fini_array    0x0000000008000858        0x4 c:/st/stm32cubeide_1.12.0/stm32cubeide/plugins/com.st.stm32cube.ide.mcu.externaltools.gnu-tools-for-stm32.10.3-2021.10.win32_1.0.200.202301161003/tools/bin/../lib/gcc/arm-none-eabi/10.3.1/thumb/v7e-m/nofp/crtbegin.o
                [!provide]                        PROVIDE (__fini_array_end = .)
                0x000000000800085c                . = ALIGN (0x4)
                0x000000000800085c                _sidata = LOADADDR (.data)

.data           0x0000000020000000        0x0 load address 0x000000000800085c
                0x0000000020000000                . = ALIGN (0x4)
                0x0000000020000000                _sdata = .
 *(.data)
 *(.data*)
 *(.RamFunc)
 *(.RamFunc*)
                0x0000000020000000                . = ALIGN (0x4)
                0x0000000020000000                _edata = .

.igot.plt       0x0000000020000000        0x0 load address 0x000000000800085c
 .igot.plt      0x0000000020000000        0x0 c:/st/stm32cubeide_1.12.0/stm32cubeide/plugins/com.st.stm32cube.ide.mcu.externaltools.gnu-tools-for-stm32.10.3-2021.10.win32_1.0.200.202301161003/tools/bin/../lib/gcc/arm-none-eabi/10.3.1/thumb/v7e-m/nofp/crtbegin.o
                0x0000000020000000                . = ALIGN (0x4)

.bss            0x0000000020000000       0x28 load address 0x000000000800085c
                0x0000000020000000                _sbss = .
                0x0000000020000000                __bss_start__ = _sbss
 *(.bss)
 .bss           0x0000000020000000       0x1c c:/st/stm32cubeide_1.12.0/stm32cubeide/plugins/com.st.stm32cube.ide.mcu.externaltools.gnu-tools-for-stm32.10.3-2021.10.win32_1.0.200.202301161003/tools/bin/../lib/gcc/arm-none-eabi/10.3.1/thumb/v7e-m/nofp/crtbegin.o
 *(.bss*)
 .bss.GPIO_MainHandle
                0x000000002000001c        0xc ./Src/main.o
                0x000000002000001c                GPIO_MainHandle
 *(COMMON)
                0x0000000020000028                . = ALIGN (0x4)
                0x0000000020000028                _ebss = .
                0x0000000020000028                __bss_end__ = _ebss

._user_heap_stack
                0x0000000020000028      0x600 load address 0x000000000800085c
                0x0000000020000028                . = ALIGN (0x8)
                [!provide]                        PROVIDE (end = .)
                0x0000000020000028                PROVIDE (_end = .)
                0x0000000020000228                . = (. + _Min_Heap_Size)
 *fill*         0x0000000020000028      0x200 
                0x0000000020000628                . = (. + _Min_Stack_Size)
 *fill*         0x0000000020000228      0x400 
                0x0000000020000628                . = ALIGN (0x8)

/DISCARD/
 libc.a(*)
 libm.a(*)
 libgcc.a(*)

.ARM.attributes
                0x0000000000000000       0x2a
 *(.ARM.attributes)
 .ARM.attributes
                0x0000000000000000       0x1e c:/st/stm32cubeide_1.12.0/stm32cubeide/plugins/com.st.stm32cube.ide.mcu.externaltools.gnu-tools-for-stm32.10.3-2021.10.win32_1.0.200.202301161003/tools/bin/../lib/gcc/arm-none-eabi/10.3.1/thumb/v7e-m/nofp/crti.o
 .ARM.attributes
                0x000000000000001e       0x2e c:/st/stm32cubeide_1.12.0/stm32cubeide/plugins/com.st.stm32cube.ide.mcu.externaltools.gnu-tools-for-stm32.10.3-2021.10.win32_1.0.200.202301161003/tools/bin/../lib/gcc/arm-none-eabi/10.3.1/thumb/v7e-m/nofp/crtbegin.o
 .ARM.attributes
                0x000000000000004c       0x2e ./MCAL/EXTI/stm32f446_exti.o
 .ARM.attributes
                0x000000000000007a       0x2e ./MCAL/GPIO/stm32f446_gpio.o
 .ARM.attributes
                0x00000000000000a8       0x2e ./MCAL/NVIC/stm32f446_nvic.o
 .ARM.attributes
                0x00000000000000d6       0x2e ./MCAL/RCC/stm32f446_rcc.o
 .ARM.attributes
                0x0000000000000104       0x2e ./Src/main.o
 .ARM.attributes
                0x0000000000000132       0x21 ./Startup/startup_stm32f446retx.o
 .ARM.attributes
                0x0000000000000153       0x2e c:/st/stm32cubeide_1.12.0/stm32cubeide/plugins/com.st.stm32cube.ide.mcu.externaltools.gnu-tools-for-stm32.10.3-2021.10.win32_1.0.200.202301161003/tools/bin/../lib/gcc/arm-none-eabi/10.3.1/../../../../arm-none-eabi/lib/thumb/v7e-m/nofp\libc_nano.a(lib_a-init.o)
 .ARM.attributes
                0x0000000000000181       0x1e c:/st/stm32cubeide_1.12.0/stm32cubeide/plugins/com.st.stm32cube.ide.mcu.externaltools.gnu-tools-for-stm32.10.3-2021.10.win32_1.0.200.202301161003/tools/bin/../lib/gcc/arm-none-eabi/10.3.1/thumb/v7e-m/nofp/crtn.o
OUTPUT(STM32F446_ARM_ITI.elf elf32-littlearm)
LOAD linker stubs
LOAD c:/st/stm32cubeide_1.12.0/stm32cubeide/plugins/com.st.stm32cube.ide.mcu.externaltools.gnu-tools-for-stm32.10.3-2021.10.win32_1.0.200.202301161003/tools/bin/../lib/gcc/arm-none-eabi/10.3.1/../../../../arm-none-eabi/lib/thumb/v7e-m/nofp\libc.a
LOAD c:/st/stm32cubeide_1.12.0/stm32cubeide/plugins/com.st.stm32cube.ide.mcu.externaltools.gnu-tools-for-stm32.10.3-2021.10.win32_1.0.200.202301161003/tools/bin/../lib/gcc/arm-none-eabi/10.3.1/../../../../arm-none-eabi/lib/thumb/v7e-m/nofp\libm.a
LOAD c:/st/stm32cubeide_1.12.0/stm32cubeide/plugins/com.st.stm32cube.ide.mcu.externaltools.gnu-tools-for-stm32.10.3-2021.10.win32_1.0.200.202301161003/tools/bin/../lib/gcc/arm-none-eabi/10.3.1/thumb/v7e-m/nofp\libgcc.a

.debug_info     0x0000000000000000     0x10f8
 .debug_info    0x0000000000000000      0x2c4 ./MCAL/EXTI/stm32f446_exti.o
 .debug_info    0x00000000000002c4      0x3f7 ./MCAL/GPIO/stm32f446_gpio.o
 .debug_info    0x00000000000006bb      0x320 ./MCAL/NVIC/stm32f446_nvic.o
 .debug_info    0x00000000000009db      0x45c ./MCAL/RCC/stm32f446_rcc.o
 .debug_info    0x0000000000000e37      0x29f ./Src/main.o
 .debug_info    0x00000000000010d6       0x22 ./Startup/startup_stm32f446retx.o

.debug_abbrev   0x0000000000000000      0x5d8
 .debug_abbrev  0x0000000000000000      0x103 ./MCAL/EXTI/stm32f446_exti.o
 .debug_abbrev  0x0000000000000103      0x144 ./MCAL/GPIO/stm32f446_gpio.o
 .debug_abbrev  0x0000000000000247      0x131 ./MCAL/NVIC/stm32f446_nvic.o
 .debug_abbrev  0x0000000000000378      0x15a ./MCAL/RCC/stm32f446_rcc.o
 .debug_abbrev  0x00000000000004d2       0xf4 ./Src/main.o
 .debug_abbrev  0x00000000000005c6       0x12 ./Startup/startup_stm32f446retx.o

.debug_aranges  0x0000000000000000      0x160
 .debug_aranges
                0x0000000000000000       0x28 ./MCAL/EXTI/stm32f446_exti.o
 .debug_aranges
                0x0000000000000028       0x58 ./MCAL/GPIO/stm32f446_gpio.o
 .debug_aranges
                0x0000000000000080       0x40 ./MCAL/NVIC/stm32f446_nvic.o
 .debug_aranges
                0x00000000000000c0       0x48 ./MCAL/RCC/stm32f446_rcc.o
 .debug_aranges
                0x0000000000000108       0x30 ./Src/main.o
 .debug_aranges
                0x0000000000000138       0x28 ./Startup/startup_stm32f446retx.o

.debug_ranges   0x0000000000000000      0x108
 .debug_ranges  0x0000000000000000       0x18 ./MCAL/EXTI/stm32f446_exti.o
 .debug_ranges  0x0000000000000018       0x48 ./MCAL/GPIO/stm32f446_gpio.o
 .debug_ranges  0x0000000000000060       0x30 ./MCAL/NVIC/stm32f446_nvic.o
 .debug_ranges  0x0000000000000090       0x38 ./MCAL/RCC/stm32f446_rcc.o
 .debug_ranges  0x00000000000000c8       0x20 ./Src/main.o
 .debug_ranges  0x00000000000000e8       0x20 ./Startup/startup_stm32f446retx.o

.debug_macro    0x0000000000000000      0x58f
 .debug_macro   0x0000000000000000       0xaf ./MCAL/EXTI/stm32f446_exti.o
 .debug_macro   0x00000000000000af       0x16 ./MCAL/EXTI/stm32f446_exti.o
 .debug_macro   0x00000000000000c5       0xaf ./MCAL/GPIO/stm32f446_gpio.o
 .debug_macro   0x0000000000000174       0xb2 ./MCAL/GPIO/stm32f446_gpio.o
 .debug_macro   0x0000000000000226       0xa9 ./MCAL/NVIC/stm32f446_nvic.o
 .debug_macro   0x00000000000002cf       0xaf ./MCAL/RCC/stm32f446_rcc.o
 .debug_macro   0x000000000000037e       0x9f ./Src/main.o
 .debug_macro   0x000000000000041d      0x172 ./Src/main.o

.debug_line     0x0000000000000000     0x2158
 .debug_line    0x0000000000000000      0x66d ./MCAL/EXTI/stm32f446_exti.o
 .debug_line    0x000000000000066d      0x7b7 ./MCAL/GPIO/stm32f446_gpio.o
 .debug_line    0x0000000000000e24      0x632 ./MCAL/NVIC/stm32f446_nvic.o
 .debug_line    0x0000000000001456      0x6f9 ./MCAL/RCC/stm32f446_rcc.o
 .debug_line    0x0000000000001b4f      0x585 ./Src/main.o
 .debug_line    0x00000000000020d4       0x84 ./Startup/startup_stm32f446retx.o

.debug_str      0x0000000000000000     0x4d25
 .debug_str     0x0000000000000000     0x489b ./MCAL/EXTI/stm32f446_exti.o
                                       0x4a0c (size before relaxing)
 .debug_str     0x000000000000489b      0x10d ./MCAL/GPIO/stm32f446_gpio.o
                                       0x4a73 (size before relaxing)
 .debug_str     0x00000000000049a8       0xfb ./MCAL/NVIC/stm32f446_nvic.o
                                       0x4a0a (size before relaxing)
 .debug_str     0x0000000000004aa3      0x20b ./MCAL/RCC/stm32f446_rcc.o
                                       0x4b3c (size before relaxing)
 .debug_str     0x0000000000004cae       0x46 ./Src/main.o
                                       0x4a14 (size before relaxing)
 .debug_str     0x0000000000004cf4       0x31 ./Startup/startup_stm32f446retx.o
                                         0x75 (size before relaxing)

.comment        0x0000000000000000       0x50
 .comment       0x0000000000000000       0x50 ./MCAL/EXTI/stm32f446_exti.o
                                         0x51 (size before relaxing)
 .comment       0x0000000000000050       0x51 ./MCAL/GPIO/stm32f446_gpio.o
 .comment       0x0000000000000050       0x51 ./MCAL/NVIC/stm32f446_nvic.o
 .comment       0x0000000000000050       0x51 ./MCAL/RCC/stm32f446_rcc.o
 .comment       0x0000000000000050       0x51 ./Src/main.o

.debug_frame    0x0000000000000000      0x3f8
 .debug_frame   0x0000000000000000       0x5c ./MCAL/EXTI/stm32f446_exti.o
 .debug_frame   0x000000000000005c      0x148 ./MCAL/GPIO/stm32f446_gpio.o
 .debug_frame   0x00000000000001a4       0xd8 ./MCAL/NVIC/stm32f446_nvic.o
 .debug_frame   0x000000000000027c       0xec ./MCAL/RCC/stm32f446_rcc.o
 .debug_frame   0x0000000000000368       0x64 ./Src/main.o
 .debug_frame   0x00000000000003cc       0x2c c:/st/stm32cubeide_1.12.0/stm32cubeide/plugins/com.st.stm32cube.ide.mcu.externaltools.gnu-tools-for-stm32.10.3-2021.10.win32_1.0.200.202301161003/tools/bin/../lib/gcc/arm-none-eabi/10.3.1/../../../../arm-none-eabi/lib/thumb/v7e-m/nofp\libc_nano.a(lib_a-init.o)
